target datalayout = "e-m:e-p270:32:32-p271:32:32-p272:64:64-i64:64-i128:128-f80:128-n8:16:32:64-S128"
target triple = "x86_64-pc-linux-gnu"

%struct.pg_tm = type { i32, i32, i32, i32, i32, i32, i32, i32, i32, i64, ptr }
%struct.DateTimeErrorExtra = type { ptr, ptr }
%struct.FunctionCallInfoBaseData = type { ptr, ptr, ptr, i32, i8, i16, [0 x %struct.NullableDatum] }
%struct.NullableDatum = type { i64, i8 }
%struct.TimeTzADT = type { i64, i32 }

@AdjustTimeForTypmod.TimeScales = internal constant [7 x i64] [i64 1000000, i64 100000, i64 10000, i64 1000, i64 100, i64 10, i64 1], align 16
@AdjustTimeForTypmod.TimeOffsets = internal constant [7 x i64] [i64 500000, i64 50000, i64 5000, i64 500, i64 50, i64 5, i64 0], align 16
@.str.27 = private unnamed_addr constant [20 x i8] c"time with time zone\00", align 1

; Function Attrs: inlinehint nounwind uwtable
define internal i64 @PointerGetDatum(ptr noundef %0) #4 {
  %2 = alloca ptr, align 8
  store ptr %0, ptr %2, align 8
  %3 = load ptr, ptr %2, align 8
  %4 = ptrtoint ptr %3 to i64
  ret i64 %4
}

; Function Attrs: inlinehint nounwind uwtable
define internal ptr @DatumGetPointer(i64 noundef %0) #4 {
  %2 = alloca i64, align 8
  store i64 %0, ptr %2, align 8
  %3 = load i64, ptr %2, align 8
  %4 = inttoptr i64 %3 to ptr
  ret ptr %4
}

; Function Attrs: inlinehint nounwind uwtable
define internal i64 @TimeTzADTPGetDatum(ptr noundef %0) #4 {
  %2 = alloca ptr, align 8
  store ptr %0, ptr %2, align 8
  %3 = load ptr, ptr %2, align 8
  %4 = call i64 @PointerGetDatum(ptr noundef %3)
  ret i64 %4
}

; Function Attrs: nounwind uwtable
define dso_local void @AdjustTimeForTypmod(ptr noundef %0, i32 noundef %1) #0 {
  %3 = alloca ptr, align 8
  %4 = alloca i32, align 4
  store ptr %0, ptr %3, align 8
  store i32 %1, ptr %4, align 4
  %5 = load i32, ptr %4, align 4
  %6 = icmp sge i32 %5, 0
  br i1 %6, label %7, label %55

7:                                                ; preds = %2
  %8 = load i32, ptr %4, align 4
  %9 = icmp sle i32 %8, 6
  br i1 %9, label %10, label %55

10:                                               ; preds = %7
  %11 = load ptr, ptr %3, align 8
  %12 = load i64, ptr %11, align 8
  %13 = icmp sge i64 %12, 0
  br i1 %13, label %14, label %33

14:                                               ; preds = %10
  %15 = load ptr, ptr %3, align 8
  %16 = load i64, ptr %15, align 8
  %17 = load i32, ptr %4, align 4
  %18 = sext i32 %17 to i64
  %19 = getelementptr inbounds [7 x i64], ptr @AdjustTimeForTypmod.TimeOffsets, i64 0, i64 %18
  %20 = load i64, ptr %19, align 8
  %21 = add i64 %16, %20
  %22 = load i32, ptr %4, align 4
  %23 = sext i32 %22 to i64
  %24 = getelementptr inbounds [7 x i64], ptr @AdjustTimeForTypmod.TimeScales, i64 0, i64 %23
  %25 = load i64, ptr %24, align 8
  %26 = sdiv i64 %21, %25
  %27 = load i32, ptr %4, align 4
  %28 = sext i32 %27 to i64
  %29 = getelementptr inbounds [7 x i64], ptr @AdjustTimeForTypmod.TimeScales, i64 0, i64 %28
  %30 = load i64, ptr %29, align 8
  %31 = mul i64 %26, %30
  %32 = load ptr, ptr %3, align 8
  store i64 %31, ptr %32, align 8
  br label %54

33:                                               ; preds = %10
  %34 = load ptr, ptr %3, align 8
  %35 = load i64, ptr %34, align 8
  %36 = sub i64 0, %35
  %37 = load i32, ptr %4, align 4
  %38 = sext i32 %37 to i64
  %39 = getelementptr inbounds [7 x i64], ptr @AdjustTimeForTypmod.TimeOffsets, i64 0, i64 %38
  %40 = load i64, ptr %39, align 8
  %41 = add i64 %36, %40
  %42 = load i32, ptr %4, align 4
  %43 = sext i32 %42 to i64
  %44 = getelementptr inbounds [7 x i64], ptr @AdjustTimeForTypmod.TimeScales, i64 0, i64 %43
  %45 = load i64, ptr %44, align 8
  %46 = sdiv i64 %41, %45
  %47 = load i32, ptr %4, align 4
  %48 = sext i32 %47 to i64
  %49 = getelementptr inbounds [7 x i64], ptr @AdjustTimeForTypmod.TimeScales, i64 0, i64 %48
  %50 = load i64, ptr %49, align 8
  %51 = mul i64 %46, %50
  %52 = sub i64 0, %51
  %53 = load ptr, ptr %3, align 8
  store i64 %52, ptr %53, align 8
  br label %54

54:                                               ; preds = %33, %14
  br label %55

55:                                               ; preds = %54, %7, %2
  ret void
}

; Function Attrs: nounwind uwtable
define dso_local i32 @tm2timetz(ptr noundef %0, i32 noundef %1, i32 noundef %2, ptr noundef %3) #0 {
  %5 = alloca ptr, align 8
  %6 = alloca i32, align 4
  %7 = alloca i32, align 4
  %8 = alloca ptr, align 8
  store ptr %0, ptr %5, align 8
  store i32 %1, ptr %6, align 4
  store i32 %2, ptr %7, align 4
  store ptr %3, ptr %8, align 8
  %9 = load ptr, ptr %5, align 8
  %10 = getelementptr inbounds nuw %struct.pg_tm, ptr %9, i32 0, i32 2
  %11 = load i32, ptr %10, align 8
  %12 = mul i32 %11, 60
  %13 = load ptr, ptr %5, align 8
  %14 = getelementptr inbounds nuw %struct.pg_tm, ptr %13, i32 0, i32 1
  %15 = load i32, ptr %14, align 4
  %16 = add i32 %12, %15
  %17 = mul i32 %16, 60
  %18 = load ptr, ptr %5, align 8
  %19 = getelementptr inbounds nuw %struct.pg_tm, ptr %18, i32 0, i32 0
  %20 = load i32, ptr %19, align 8
  %21 = add i32 %17, %20
  %22 = sext i32 %21 to i64
  %23 = mul i64 %22, 1000000
  %24 = load i32, ptr %6, align 4
  %25 = sext i32 %24 to i64
  %26 = add i64 %23, %25
  %27 = load ptr, ptr %8, align 8
  %28 = getelementptr inbounds nuw %struct.TimeTzADT, ptr %27, i32 0, i32 0
  store i64 %26, ptr %28, align 8
  %29 = load i32, ptr %7, align 4
  %30 = load ptr, ptr %8, align 8
  %31 = getelementptr inbounds nuw %struct.TimeTzADT, ptr %30, i32 0, i32 1
  store i32 %29, ptr %31, align 8
  ret i32 0
}

; Function Attrs: inlinehint nounwind uwtable
define internal i32 @DatumGetInt32(i64 noundef %0) #4 {
  %2 = alloca i64, align 8
  store i64 %0, ptr %2, align 8
  %3 = load i64, ptr %2, align 8
  %4 = trunc i64 %3 to i32
  ret i32 %4
}

; Function Attrs: inlinehint nounwind uwtable
define internal ptr @DatumGetCString(i64 noundef %0) #4 {
  %2 = alloca i64, align 8
  store i64 %0, ptr %2, align 8
  %3 = load i64, ptr %2, align 8
  %4 = call ptr @DatumGetPointer(i64 noundef %3)
  ret ptr %4
}

; Function Attrs: nounwind uwtable
define dso_local i64 @timetz_in(ptr noundef %0) #0 {
  %2 = alloca i64, align 8
  %3 = alloca ptr, align 8
  %4 = alloca ptr, align 8
  %5 = alloca i32, align 4
  %6 = alloca ptr, align 8
  %7 = alloca ptr, align 8
  %8 = alloca i32, align 4
  %9 = alloca %struct.pg_tm, align 8
  %10 = alloca ptr, align 8
  %11 = alloca i32, align 4
  %12 = alloca i32, align 4
  %13 = alloca i32, align 4
  %14 = alloca [129 x i8], align 16
  %15 = alloca [25 x ptr], align 16
  %16 = alloca i32, align 4
  %17 = alloca [25 x i32], align 16
  %18 = alloca %struct.DateTimeErrorExtra, align 8
  %19 = alloca i32, align 4
  store ptr %0, ptr %3, align 8
  call void @llvm.lifetime.start.p0(i64 8, ptr %4) #9
  %20 = load ptr, ptr %3, align 8
  %21 = getelementptr inbounds nuw %struct.FunctionCallInfoBaseData, ptr %20, i32 0, i32 6
  %22 = getelementptr inbounds [0 x %struct.NullableDatum], ptr %21, i64 0, i64 0
  %23 = getelementptr inbounds nuw %struct.NullableDatum, ptr %22, i32 0, i32 0
  %24 = load i64, ptr %23, align 8
  %25 = call ptr @DatumGetCString(i64 noundef %24)
  store ptr %25, ptr %4, align 8
  call void @llvm.lifetime.start.p0(i64 4, ptr %5) #9
  %26 = load ptr, ptr %3, align 8
  %27 = getelementptr inbounds nuw %struct.FunctionCallInfoBaseData, ptr %26, i32 0, i32 6
  %28 = getelementptr inbounds [0 x %struct.NullableDatum], ptr %27, i64 0, i64 2
  %29 = getelementptr inbounds nuw %struct.NullableDatum, ptr %28, i32 0, i32 0
  %30 = load i64, ptr %29, align 8
  %31 = call i32 @DatumGetInt32(i64 noundef %30)
  store i32 %31, ptr %5, align 4
  call void @llvm.lifetime.start.p0(i64 8, ptr %6) #9
  %32 = load ptr, ptr %3, align 8
  %33 = getelementptr inbounds nuw %struct.FunctionCallInfoBaseData, ptr %32, i32 0, i32 1
  %34 = load ptr, ptr %33, align 8
  store ptr %34, ptr %6, align 8
  call void @llvm.lifetime.start.p0(i64 8, ptr %7) #9
  call void @llvm.lifetime.start.p0(i64 4, ptr %8) #9
  call void @llvm.lifetime.start.p0(i64 56, ptr %9) #9
  call void @llvm.lifetime.start.p0(i64 8, ptr %10) #9
  store ptr %9, ptr %10, align 8
  call void @llvm.lifetime.start.p0(i64 4, ptr %11) #9
  call void @llvm.lifetime.start.p0(i64 4, ptr %12) #9
  call void @llvm.lifetime.start.p0(i64 4, ptr %13) #9
  call void @llvm.lifetime.start.p0(i64 129, ptr %14) #9
  call void @llvm.lifetime.start.p0(i64 200, ptr %15) #9
  call void @llvm.lifetime.start.p0(i64 4, ptr %16) #9
  call void @llvm.lifetime.start.p0(i64 100, ptr %17) #9
  call void @llvm.lifetime.start.p0(i64 16, ptr %18) #9
  %35 = load ptr, ptr %4, align 8
  %36 = getelementptr inbounds [129 x i8], ptr %14, i64 0, i64 0
  %37 = getelementptr inbounds [25 x ptr], ptr %15, i64 0, i64 0
  %38 = getelementptr inbounds [25 x i32], ptr %17, i64 0, i64 0
  %39 = call i32 @ParseDateTime(ptr noundef %35, ptr noundef %36, i64 noundef 129, ptr noundef %37, ptr noundef %38, i32 noundef 25, ptr noundef %12)
  store i32 %39, ptr %13, align 4
  %40 = load i32, ptr %13, align 4
  %41 = icmp eq i32 %40, 0
  br i1 %41, label %42, label %48

42:                                               ; preds = %1
  %43 = getelementptr inbounds [25 x ptr], ptr %15, i64 0, i64 0
  %44 = getelementptr inbounds [25 x i32], ptr %17, i64 0, i64 0
  %45 = load i32, ptr %12, align 4
  %46 = load ptr, ptr %10, align 8
  %47 = call i32 @DecodeTimeOnly(ptr noundef %43, ptr noundef %44, i32 noundef %45, ptr noundef %16, ptr noundef %46, ptr noundef %8, ptr noundef %11, ptr noundef %18)
  store i32 %47, ptr %13, align 4
  br label %48

48:                                               ; preds = %42, %1
  %49 = load i32, ptr %13, align 4
  %50 = icmp ne i32 %49, 0
  br i1 %50, label %51, label %60

51:                                               ; preds = %48
  %52 = load i32, ptr %13, align 4
  %53 = load ptr, ptr %4, align 8
  %54 = load ptr, ptr %6, align 8
  call void @DateTimeParseError(i32 noundef %52, ptr noundef %18, ptr noundef %53, ptr noundef @.str.27, ptr noundef %54)
  br label %55

55:                                               ; preds = %51
  %56 = load ptr, ptr %3, align 8
  %57 = getelementptr inbounds nuw %struct.FunctionCallInfoBaseData, ptr %56, i32 0, i32 4
  store i8 1, ptr %57, align 4
  store i64 0, ptr %2, align 8
  store i32 1, ptr %19, align 4
  br label %72

58:                                               ; No predecessors!
  br label %59

59:                                               ; preds = %58
  br label %60

60:                                               ; preds = %59, %48
  %61 = call ptr @palloc(i64 noundef 16)
  store ptr %61, ptr %7, align 8
  %62 = load ptr, ptr %10, align 8
  %63 = load i32, ptr %8, align 4
  %64 = load i32, ptr %11, align 4
  %65 = load ptr, ptr %7, align 8
  %66 = call i32 @tm2timetz(ptr noundef %62, i32 noundef %63, i32 noundef %64, ptr noundef %65)
  %67 = load ptr, ptr %7, align 8
  %68 = getelementptr inbounds nuw %struct.TimeTzADT, ptr %67, i32 0, i32 0
  %69 = load i32, ptr %5, align 4
  call void @AdjustTimeForTypmod(ptr noundef %68, i32 noundef %69)
  %70 = load ptr, ptr %7, align 8
  %71 = call i64 @TimeTzADTPGetDatum(ptr noundef %70)
  store i64 %71, ptr %2, align 8
  store i32 1, ptr %19, align 4
  br label %72

72:                                               ; preds = %60, %55
  call void @llvm.lifetime.end.p0(i64 16, ptr %18) #9
  call void @llvm.lifetime.end.p0(i64 100, ptr %17) #9
  call void @llvm.lifetime.end.p0(i64 4, ptr %16) #9
  call void @llvm.lifetime.end.p0(i64 200, ptr %15) #9
  call void @llvm.lifetime.end.p0(i64 129, ptr %14) #9
  call void @llvm.lifetime.end.p0(i64 4, ptr %13) #9
  call void @llvm.lifetime.end.p0(i64 4, ptr %12) #9
  call void @llvm.lifetime.end.p0(i64 4, ptr %11) #9
  call void @llvm.lifetime.end.p0(i64 8, ptr %10) #9
  call void @llvm.lifetime.end.p0(i64 56, ptr %9) #9
  call void @llvm.lifetime.end.p0(i64 4, ptr %8) #9
  call void @llvm.lifetime.end.p0(i64 8, ptr %7) #9
  call void @llvm.lifetime.end.p0(i64 8, ptr %6) #9
  call void @llvm.lifetime.end.p0(i64 4, ptr %5) #9
  call void @llvm.lifetime.end.p0(i64 8, ptr %4) #9
  %73 = load i64, ptr %2, align 8
  ret i64 %73
}