; Function Attrs: nounwind uwtable
define dso_local noundef i64 @timetz_in(ptr noundef captures(none) %0) local_unnamed_addr #0 {
  %2 = alloca i32, align 4
  %3 = alloca %struct.pg_tm, align 8
  %4 = alloca i32, align 4
  %5 = alloca i32, align 4
  %6 = alloca [129 x i8], align 16
  %7 = alloca [25 x ptr], align 16
  %8 = alloca i32, align 4
  %9 = alloca [25 x i32], align 16
  %10 = alloca %struct.DateTimeErrorExtra, align 8
  %11 = getelementptr inbounds nuw i8, ptr %0, i64 32
  %12 = load i64, ptr %11, align 8
  %13 = inttoptr i64 %12 to ptr
  %14 = getelementptr inbounds nuw i8, ptr %0, i64 64
  %15 = load i64, ptr %14, align 8
  %16 = trunc i64 %15 to i32
  %17 = getelementptr inbounds nuw i8, ptr %0, i64 8
  %18 = load ptr, ptr %17, align 8
  call void @llvm.lifetime.start.p0(i64 4, ptr nonnull %2) #16
  call void @llvm.lifetime.start.p0(i64 56, ptr nonnull %3) #16
  call void @llvm.lifetime.start.p0(i64 4, ptr nonnull %4) #16
  call void @llvm.lifetime.start.p0(i64 4, ptr nonnull %5) #16
  call void @llvm.lifetime.start.p0(i64 129, ptr nonnull %6) #16
  call void @llvm.lifetime.start.p0(i64 200, ptr nonnull %7) #16
  call void @llvm.lifetime.start.p0(i64 4, ptr nonnull %8) #16
  call void @llvm.lifetime.start.p0(i64 100, ptr nonnull %9) #16
  call void @llvm.lifetime.start.p0(i64 16, ptr nonnull %10) #16
  %19 = call i32 @ParseDateTime(ptr noundef %13, ptr noundef nonnull %6, i64 noundef 129, ptr noundef nonnull %7, ptr noundef nonnull %9, i32 noundef 25, ptr noundef nonnull %5) #16
  %20 = icmp eq i32 %19, 0
  br i1 %20, label %21, label %.thread

21:                                               ; preds = %1
  %22 = load i32, ptr %5, align 4
  %23 = call i32 @DecodeTimeOnly(ptr noundef nonnull %7, ptr noundef nonnull %9, i32 noundef %22, ptr noundef nonnull %8, ptr noundef nonnull %3, ptr noundef nonnull %2, ptr noundef nonnull %4, ptr noundef nonnull %10) #16
  %.not = icmp eq i32 %23, 0
  br i1 %.not, label %25, label %.thread

.thread:                                          ; preds = %1, %21
  %.020 = phi i32 [ %23, %21 ], [ %19, %1 ]
  call void @DateTimeParseError(i32 noundef %.020, ptr noundef nonnull %10, ptr noundef %13, ptr noundef nonnull @.str.27, ptr noundef %18) #16
  %24 = getelementptr inbounds nuw i8, ptr %0, i64 28
  store i8 1, ptr %24, align 4
  br label %58

25:                                               ; preds = %21
  %26 = call ptr @palloc(i64 noundef 16) #16
  %27 = load i32, ptr %2, align 4
  %28 = load i32, ptr %4, align 4
  %29 = getelementptr inbounds nuw i8, ptr %3, i64 8
  %30 = load i32, ptr %29, align 8
  %31 = mul i32 %30, 60
  %32 = getelementptr inbounds nuw i8, ptr %3, i64 4
  %33 = load i32, ptr %32, align 4
  %34 = add i32 %31, %33
  %35 = mul i32 %34, 60
  %36 = load i32, ptr %3, align 8
  %37 = add i32 %35, %36
  %38 = sext i32 %37 to i64
  %39 = mul nsw i64 %38, 1000000
  %40 = sext i32 %27 to i64
  %41 = add nsw i64 %39, %40
  store i64 %41, ptr %26, align 8
  %42 = getelementptr inbounds nuw i8, ptr %26, i64 8
  store i32 %28, ptr %42, align 8
  %or.cond.i = icmp ult i32 %16, 7
  br i1 %or.cond.i, label %43, label %AdjustTimeForTypmod.exit

43:                                               ; preds = %25
  %44 = icmp sgt i64 %41, -1
  %45 = and i64 %15, 7
  %46 = getelementptr inbounds nuw [7 x i64], ptr @AdjustTimeForTypmod.TimeOffsets, i64 0, i64 %45
  %47 = load i64, ptr %46, align 8
  %48 = getelementptr inbounds nuw [7 x i64], ptr @AdjustTimeForTypmod.TimeScales, i64 0, i64 %45
  %49 = load i64, ptr %48, align 8
  br i1 %44, label %50, label %54

50:                                               ; preds = %43
  %51 = add i64 %47, %41
  %.fr14.i = freeze i64 %51
  %52 = srem i64 %.fr14.i, %49
  %53 = sub nsw i64 %.fr14.i, %52
  br label %.sink.split.i

54:                                               ; preds = %43
  %55 = sub i64 %47, %41
  %.fr.i = freeze i64 %55
  %56 = srem i64 %.fr.i, %49
  %.neg.i = sub i64 %56, %.fr.i
  br label %.sink.split.i

.sink.split.i:                                    ; preds = %54, %50
  %.sink.i = phi i64 [ %53, %50 ], [ %.neg.i, %54 ]
  store i64 %.sink.i, ptr %26, align 8
  br label %AdjustTimeForTypmod.exit

AdjustTimeForTypmod.exit:                         ; preds = %25, %.sink.split.i
  %57 = ptrtoint ptr %26 to i64
  br label %58

58:                                               ; preds = %AdjustTimeForTypmod.exit, %.thread
  %.016 = phi i64 [ 0, %.thread ], [ %57, %AdjustTimeForTypmod.exit ]
  call void @llvm.lifetime.end.p0(i64 16, ptr nonnull %10) #16
  call void @llvm.lifetime.end.p0(i64 100, ptr nonnull %9) #16
  call void @llvm.lifetime.end.p0(i64 4, ptr nonnull %8) #16
  call void @llvm.lifetime.end.p0(i64 200, ptr nonnull %7) #16
  call void @llvm.lifetime.end.p0(i64 129, ptr nonnull %6) #16
  call void @llvm.lifetime.end.p0(i64 4, ptr nonnull %5) #16
  call void @llvm.lifetime.end.p0(i64 4, ptr nonnull %4) #16
  call void @llvm.lifetime.end.p0(i64 56, ptr nonnull %3) #16
  call void @llvm.lifetime.end.p0(i64 4, ptr nonnull %2) #16
  ret i64 %.016
}